target datalayout = "e-m:e-p270:32:32-p271:32:32-p272:64:64-i64:64-i128:128-f80:128-n8:16:32:64-S128"
target triple = "x86_64-pc-linux-gnu"

%"class.cv::xfeatures2d::DAISY_Impl" = type { %"class.cv::xfeatures2d::DAISY", float, i32, i32, i32, i32, i32, i32, i32, i8, i8, i8, i8, %"class.cv::Mat", %"class.cv::Mat", %"class.cv::Rect_", %"class.std::vector.0", %"class.cv::Mat", %"class.cv::Mat", %"class.cv::Mat", %"class.cv::Mat", %"class.cv::Mat", [360 x double] }
%"class.cv::xfeatures2d::DAISY" = type { %"class.cv::Feature2D" }
%"class.cv::Feature2D" = type { %"class.cv::Algorithm" }
%"class.cv::Algorithm" = type { ptr }
%"class.cv::Rect_" = type { i32, i32, i32, i32 }
%"class.std::vector.0" = type { %"struct.std::_Vector_base.1" }
%"struct.std::_Vector_base.1" = type { %"struct.std::_Vector_base<cv::Mat, std::allocator<cv::Mat>>::_Vector_impl" }
%"struct.std::_Vector_base<cv::Mat, std::allocator<cv::Mat>>::_Vector_impl" = type { %"struct.std::_Vector_base<cv::Mat, std::allocator<cv::Mat>>::_Vector_impl_data" }
%"struct.std::_Vector_base<cv::Mat, std::allocator<cv::Mat>>::_Vector_impl_data" = type { ptr, ptr, ptr }
%"class.cv::Mat" = type { i32, i32, i32, i32, ptr, ptr, ptr, ptr, ptr, ptr, %"struct.cv::MatSize", %"struct.cv::MatStep" }
%"struct.cv::MatSize" = type { ptr }
%"struct.cv::MatStep" = type { ptr, [2 x i64] }
%"class.cv::_InputArray" = type { i32, ptr, %"class.cv::Size_" }
%"class.cv::Size_" = type { i32, i32 }

; Function Attrs: mustprogress nounwind uwtable
define linkonce_odr hidden void @_ZNSt15__new_allocatorIN2cv3MatEEC2Ev(ptr noundef nonnull align 1 dereferenceable(1) %0) unnamed_addr #8 comdat align 2 {
  %2 = alloca ptr, align 8
  store ptr %0, ptr %2, align 8, !tbaa !218
  ret void
}

; Function Attrs: mustprogress nounwind uwtable
define linkonce_odr hidden void @_ZNSt12_Vector_baseIN2cv3MatESaIS1_EE17_Vector_impl_dataC2Ev(ptr noundef nonnull align 8 dereferenceable(24) %0) unnamed_addr #8 comdat align 2 {
  %2 = alloca ptr, align 8
  store ptr %0, ptr %2, align 8, !tbaa !310
  %3 = load ptr, ptr %2, align 8
  %4 = getelementptr inbounds nuw %"struct.std::_Vector_base<cv::Mat, std::allocator<cv::Mat>>::_Vector_impl_data", ptr %3, i32 0, i32 0
  store ptr null, ptr %4, align 8, !tbaa !114
  %5 = getelementptr inbounds nuw %"struct.std::_Vector_base<cv::Mat, std::allocator<cv::Mat>>::_Vector_impl_data", ptr %3, i32 0, i32 1
  store ptr null, ptr %5, align 8, !tbaa !115
  %6 = getelementptr inbounds nuw %"struct.std::_Vector_base<cv::Mat, std::allocator<cv::Mat>>::_Vector_impl_data", ptr %3, i32 0, i32 2
  store ptr null, ptr %6, align 8, !tbaa !216
  ret void
}

; Function Attrs: mustprogress nounwind uwtable
define linkonce_odr hidden void @_ZNSaIN2cv3MatEEC2Ev(ptr noundef nonnull align 1 dereferenceable(1) %0) unnamed_addr #8 comdat align 2 {
  %2 = alloca ptr, align 8
  store ptr %0, ptr %2, align 8, !tbaa !196
  %3 = load ptr, ptr %2, align 8
  call void @_ZNSt15__new_allocatorIN2cv3MatEEC2Ev(ptr noundef nonnull align 1 dereferenceable(1) %3) #24
  ret void
}

; Function Attrs: mustprogress nounwind uwtable
define linkonce_odr hidden void @_ZNSt12_Vector_baseIN2cv3MatESaIS1_EE12_Vector_implC2Ev(ptr noundef nonnull align 8 dereferenceable(24) %0) unnamed_addr #8 comdat align 2 {
  %2 = alloca ptr, align 8
  store ptr %0, ptr %2, align 8, !tbaa !308
  %3 = load ptr, ptr %2, align 8
  call void @_ZNSaIN2cv3MatEEC2Ev(ptr noundef nonnull align 1 dereferenceable(1) %3) #24
  call void @_ZNSt12_Vector_baseIN2cv3MatESaIS1_EE17_Vector_impl_dataC2Ev(ptr noundef nonnull align 8 dereferenceable(24) %3) #24
  ret void
}

; Function Attrs: mustprogress nounwind uwtable
define linkonce_odr hidden void @_ZNSt12_Vector_baseIN2cv3MatESaIS1_EEC2Ev(ptr noundef nonnull align 8 dereferenceable(24) %0) unnamed_addr #8 comdat align 2 {
  %2 = alloca ptr, align 8
  store ptr %0, ptr %2, align 8, !tbaa !198
  %3 = load ptr, ptr %2, align 8
  %4 = getelementptr inbounds nuw %"struct.std::_Vector_base.1", ptr %3, i32 0, i32 0
  call void @_ZNSt12_Vector_baseIN2cv3MatESaIS1_EE12_Vector_implC2Ev(ptr noundef nonnull align 8 dereferenceable(24) %4) #24
  ret void
}

; Function Attrs: inlinehint mustprogress nounwind uwtable
define linkonce_odr hidden void @_ZN2cv9Feature2DC2Ev(ptr noundef nonnull align 8 dereferenceable(8) %0, ptr noundef %1) unnamed_addr #3 comdat align 2 {
  %3 = alloca ptr, align 8
  %4 = alloca ptr, align 8
  store ptr %0, ptr %3, align 8, !tbaa !306
  store ptr %1, ptr %4, align 8, !tbaa !107
  %5 = load ptr, ptr %3, align 8
  %6 = load ptr, ptr %4, align 8
  %7 = load ptr, ptr %6, align 8
  store ptr %7, ptr %5, align 8, !tbaa !110
  %8 = getelementptr inbounds ptr, ptr %6, i64 1
  %9 = load ptr, ptr %8, align 8
  %10 = load ptr, ptr %5, align 8, !tbaa !110
  %11 = getelementptr i8, ptr %10, i64 -80
  %12 = load i64, ptr %11, align 8
  %13 = getelementptr inbounds i8, ptr %5, i64 %12
  store ptr %9, ptr %13, align 8, !tbaa !110
  ret void
}

; Function Attrs: inlinehint mustprogress nounwind uwtable
define linkonce_odr hidden void @_ZN2cv11xfeatures2d5DAISYD2Ev(ptr noundef nonnull align 8 dereferenceable(8) %0, ptr noundef %1) unnamed_addr #3 comdat align 2 {
  %3 = alloca ptr, align 8
  %4 = alloca ptr, align 8
  store ptr %0, ptr %3, align 8, !tbaa !9
  store ptr %1, ptr %4, align 8, !tbaa !107
  %5 = load ptr, ptr %3, align 8
  %6 = load ptr, ptr %4, align 8
  %7 = getelementptr inbounds ptr, ptr %6, i64 1
  call void @_ZN2cv9Feature2DD2Ev(ptr noundef nonnull align 8 dereferenceable(8) %5, ptr noundef %7) #24
  ret void
}

; Function Attrs: inlinehint mustprogress uwtable
define linkonce_odr hidden void @_ZNK2cv11_InputArray6getMatEi(ptr dead_on_unwind noalias writable sret(%"class.cv::Mat") align 8 %0, ptr noundef nonnull align 8 dereferenceable(24) %1, i32 noundef %2) #6 comdat align 2 {
  %4 = alloca ptr, align 8
  %5 = alloca ptr, align 8
  %6 = alloca i32, align 4
  store ptr %0, ptr %4, align 8
  store ptr %1, ptr %5, align 8, !tbaa !12
  store i32 %2, ptr %6, align 4, !tbaa !3
  %7 = load ptr, ptr %5, align 8
  %8 = call noundef i32 @_ZNK2cv11_InputArray4kindEv(ptr noundef nonnull align 8 dereferenceable(24) %7)
  %9 = icmp eq i32 %8, 65536
  br i1 %9, label %10, label %16

10:                                               ; preds = %3
  %11 = load i32, ptr %6, align 4, !tbaa !3
  %12 = icmp slt i32 %11, 0
  br i1 %12, label %13, label %16

13:                                               ; preds = %10
  %14 = getelementptr inbounds nuw %"class.cv::_InputArray", ptr %7, i32 0, i32 1
  %15 = load ptr, ptr %14, align 8, !tbaa !71
  call void @_ZN2cv3MatC1ERKS0_(ptr noundef nonnull align 8 dereferenceable(96) %0, ptr noundef nonnull align 8 dereferenceable(96) %15)
  br label %18

16:                                               ; preds = %10, %3
  %17 = load i32, ptr %6, align 4, !tbaa !3
  call void @_ZNK2cv11_InputArray7getMat_Ei(ptr dead_on_unwind writable sret(%"class.cv::Mat") align 8 %0, ptr noundef nonnull align 8 dereferenceable(24) %7, i32 noundef %17)
  br label %18

18:                                               ; preds = %16, %13
  ret void
}

; Function Attrs: mustprogress nounwind uwtable
define linkonce_odr hidden void @_ZNSt6vectorIN2cv3MatESaIS1_EEC2Ev(ptr noundef nonnull align 8 dereferenceable(24) %0) unnamed_addr #8 comdat align 2 {
  %2 = alloca ptr, align 8
  store ptr %0, ptr %2, align 8, !tbaa !50
  %3 = load ptr, ptr %2, align 8
  call void @_ZNSt12_Vector_baseIN2cv3MatESaIS1_EEC2Ev(ptr noundef nonnull align 8 dereferenceable(24) %3) #24
  ret void
}

; Function Attrs: inlinehint mustprogress nounwind uwtable
define linkonce_odr hidden void @_ZN2cv5Rect_IiEC2Ev(ptr noundef nonnull align 4 dereferenceable(16) %0) unnamed_addr #3 comdat align 2 {
  %2 = alloca ptr, align 8
  store ptr %0, ptr %2, align 8, !tbaa !74
  %3 = load ptr, ptr %2, align 8
  %4 = getelementptr inbounds nuw %"class.cv::Rect_", ptr %3, i32 0, i32 0
  store i32 0, ptr %4, align 4, !tbaa !76
  %5 = getelementptr inbounds nuw %"class.cv::Rect_", ptr %3, i32 0, i32 1
  store i32 0, ptr %5, align 4, !tbaa !77
  %6 = getelementptr inbounds nuw %"class.cv::Rect_", ptr %3, i32 0, i32 2
  store i32 0, ptr %6, align 4, !tbaa !78
  %7 = getelementptr inbounds nuw %"class.cv::Rect_", ptr %3, i32 0, i32 3
  store i32 0, ptr %7, align 4, !tbaa !79
  ret void
}

; Function Attrs: inlinehint mustprogress uwtable
define linkonce_odr hidden void @_ZN2cv11xfeatures2d5DAISYC2Ev(ptr noundef nonnull align 8 dereferenceable(8) %0, ptr noundef %1) unnamed_addr #6 comdat align 2 {
  %3 = alloca ptr, align 8
  %4 = alloca ptr, align 8
  store ptr %0, ptr %3, align 8, !tbaa !9
  store ptr %1, ptr %4, align 8, !tbaa !107
  %5 = load ptr, ptr %3, align 8
  %6 = load ptr, ptr %4, align 8
  %7 = getelementptr inbounds ptr, ptr %6, i64 1
  call void @_ZN2cv9Feature2DC2Ev(ptr noundef nonnull align 8 dereferenceable(8) %5, ptr noundef %7)
  %8 = load ptr, ptr %6, align 8
  store ptr %8, ptr %5, align 8, !tbaa !110
  %9 = getelementptr inbounds ptr, ptr %6, i64 3
  %10 = load ptr, ptr %9, align 8
  %11 = load ptr, ptr %5, align 8, !tbaa !110
  %12 = getelementptr i8, ptr %11, i64 -80
  %13 = load i64, ptr %12, align 8
  %14 = getelementptr inbounds i8, ptr %5, i64 %13
  store ptr %10, ptr %14, align 8, !tbaa !110
  ret void
}

; Function Attrs: mustprogress uwtable
define hidden void @_ZN2cv11xfeatures2d10DAISY_ImplC1EfiiiNS0_5DAISY17NormalizationTypeERKNS_11_InputArrayEbb(ptr noundef nonnull align 8 dereferenceable(3640) %0, float noundef %1, i32 noundef %2, i32 noundef %3, i32 noundef %4, i32 noundef %5, ptr noundef nonnull align 8 dereferenceable(24) %6, i1 noundef zeroext %7, i1 noundef zeroext %8) unnamed_addr #4 align 2 personality ptr @__gxx_personality_v0 {
  %10 = alloca ptr, align 8
  %11 = alloca float, align 4
  %12 = alloca i32, align 4
  %13 = alloca i32, align 4
  %14 = alloca i32, align 4
  %15 = alloca i32, align 4
  %16 = alloca ptr, align 8
  %17 = alloca i8, align 1
  %18 = alloca i8, align 1
  %19 = alloca ptr, align 8
  %20 = alloca i32, align 4
  %21 = alloca %"class.cv::Mat", align 8
  store ptr %0, ptr %10, align 8, !tbaa !18
  store float %1, ptr %11, align 4, !tbaa !109
  store i32 %2, ptr %12, align 4, !tbaa !3
  store i32 %3, ptr %13, align 4, !tbaa !3
  store i32 %4, ptr %14, align 4, !tbaa !3
  store i32 %5, ptr %15, align 4, !tbaa !56
  store ptr %6, ptr %16, align 8, !tbaa !12
  %22 = zext i1 %7 to i8
  store i8 %22, ptr %17, align 1, !tbaa !55
  %23 = zext i1 %8 to i8
  store i8 %23, ptr %18, align 1, !tbaa !55
  %24 = load ptr, ptr %10, align 8
  call void @_ZN2cv9AlgorithmC2Ev(ptr noundef nonnull align 8 dereferenceable(8) %24)
  invoke void @_ZN2cv11xfeatures2d5DAISYC2Ev(ptr noundef nonnull align 8 dereferenceable(8) %24, ptr noundef getelementptr inbounds ([6 x ptr], ptr @_ZTTN2cv11xfeatures2d10DAISY_ImplE, i64 0, i64 1))
          to label %25 unwind label %64

25:                                               ; preds = %9
  store ptr getelementptr inbounds inrange(-80, 304) ({ [48 x ptr] }, ptr @_ZTVN2cv11xfeatures2d10DAISY_ImplE, i32 0, i32 0, i32 10), ptr %24, align 8, !tbaa !110
  store ptr getelementptr inbounds inrange(-80, 304) ({ [48 x ptr] }, ptr @_ZTVN2cv11xfeatures2d10DAISY_ImplE, i32 0, i32 0, i32 10), ptr %24, align 8, !tbaa !110
  %26 = getelementptr inbounds nuw %"class.cv::xfeatures2d::DAISY_Impl", ptr %24, i32 0, i32 1
  %27 = load float, ptr %11, align 4, !tbaa !109
  store float %27, ptr %26, align 8, !tbaa !112
  %28 = getelementptr inbounds nuw %"class.cv::xfeatures2d::DAISY_Impl", ptr %24, i32 0, i32 2
  %29 = load i32, ptr %12, align 4, !tbaa !3
  store i32 %29, ptr %28, align 4, !tbaa !81
  %30 = getelementptr inbounds nuw %"class.cv::xfeatures2d::DAISY_Impl", ptr %24, i32 0, i32 3
  %31 = load i32, ptr %13, align 4, !tbaa !3
  store i32 %31, ptr %30, align 8, !tbaa !22
  %32 = getelementptr inbounds nuw %"class.cv::xfeatures2d::DAISY_Impl", ptr %24, i32 0, i32 4
  %33 = load i32, ptr %14, align 4, !tbaa !3
  store i32 %33, ptr %32, align 4, !tbaa !43
  %34 = getelementptr inbounds nuw %"class.cv::xfeatures2d::DAISY_Impl", ptr %24, i32 0, i32 5
  %35 = load i32, ptr %15, align 4, !tbaa !56
  store i32 %35, ptr %34, align 8, !tbaa !49
  %36 = getelementptr inbounds nuw %"class.cv::xfeatures2d::DAISY_Impl", ptr %24, i32 0, i32 11
  %37 = load i8, ptr %17, align 1, !tbaa !55, !range !47, !noundef !48
  %38 = trunc i8 %37 to i1
  %39 = zext i1 %38 to i8
  store i8 %39, ptr %36, align 2, !tbaa !46
  %40 = getelementptr inbounds nuw %"class.cv::xfeatures2d::DAISY_Impl", ptr %24, i32 0, i32 12
  %41 = load i8, ptr %18, align 1, !tbaa !55, !range !47, !noundef !48
  %42 = trunc i8 %41 to i1
  %43 = zext i1 %42 to i8
  store i8 %43, ptr %40, align 1, !tbaa !66
  %44 = getelementptr inbounds nuw %"class.cv::xfeatures2d::DAISY_Impl", ptr %24, i32 0, i32 13
  call void @_ZN2cv3MatC1Ev(ptr noundef nonnull align 8 dereferenceable(96) %44) #24
  %45 = getelementptr inbounds nuw %"class.cv::xfeatures2d::DAISY_Impl", ptr %24, i32 0, i32 14
  call void @_ZN2cv3MatC1Ev(ptr noundef nonnull align 8 dereferenceable(96) %45) #24
  %46 = getelementptr inbounds nuw %"class.cv::xfeatures2d::DAISY_Impl", ptr %24, i32 0, i32 15
  invoke void @_ZN2cv5Rect_IiEC2Ev(ptr noundef nonnull align 4 dereferenceable(16) %46)
          to label %47 unwind label %68

47:                                               ; preds = %25
  %48 = getelementptr inbounds nuw %"class.cv::xfeatures2d::DAISY_Impl", ptr %24, i32 0, i32 16
  call void @_ZNSt6vectorIN2cv3MatESaIS1_EEC2Ev(ptr noundef nonnull align 8 dereferenceable(24) %48) #24
  %49 = getelementptr inbounds nuw %"class.cv::xfeatures2d::DAISY_Impl", ptr %24, i32 0, i32 17
  call void @_ZN2cv3MatC1Ev(ptr noundef nonnull align 8 dereferenceable(96) %49) #24
  %50 = getelementptr inbounds nuw %"class.cv::xfeatures2d::DAISY_Impl", ptr %24, i32 0, i32 18
  call void @_ZN2cv3MatC1Ev(ptr noundef nonnull align 8 dereferenceable(96) %50) #24
  %51 = getelementptr inbounds nuw %"class.cv::xfeatures2d::DAISY_Impl", ptr %24, i32 0, i32 19
  call void @_ZN2cv3MatC1Ev(ptr noundef nonnull align 8 dereferenceable(96) %51) #24
  %52 = getelementptr inbounds nuw %"class.cv::xfeatures2d::DAISY_Impl", ptr %24, i32 0, i32 20
  call void @_ZN2cv3MatC1Ev(ptr noundef nonnull align 8 dereferenceable(96) %52) #24
  %53 = getelementptr inbounds nuw %"class.cv::xfeatures2d::DAISY_Impl", ptr %24, i32 0, i32 21
  call void @_ZN2cv3MatC1Ev(ptr noundef nonnull align 8 dereferenceable(96) %53) #24
  %54 = getelementptr inbounds nuw %"class.cv::xfeatures2d::DAISY_Impl", ptr %24, i32 0, i32 6
  store i32 0, ptr %54, align 4, !tbaa !45
  %55 = getelementptr inbounds nuw %"class.cv::xfeatures2d::DAISY_Impl", ptr %24, i32 0, i32 7
  store i32 0, ptr %55, align 8, !tbaa !44
  %56 = getelementptr inbounds nuw %"class.cv::xfeatures2d::DAISY_Impl", ptr %24, i32 0, i32 9
  store i8 0, ptr %56, align 8, !tbaa !105
  %57 = getelementptr inbounds nuw %"class.cv::xfeatures2d::DAISY_Impl", ptr %24, i32 0, i32 10
  store i8 0, ptr %57, align 1, !tbaa !106
  %58 = getelementptr inbounds nuw %"class.cv::xfeatures2d::DAISY_Impl", ptr %24, i32 0, i32 8
  store i32 36, ptr %58, align 4, !tbaa !113
  call void @llvm.lifetime.start.p0(i64 96, ptr %21) #24
  %59 = load ptr, ptr %16, align 8, !tbaa !12
  invoke void @_ZNK2cv11_InputArray6getMatEi(ptr dead_on_unwind writable sret(%"class.cv::Mat") align 8 %21, ptr noundef nonnull align 8 dereferenceable(24) %59, i32 noundef -1)
          to label %60 unwind label %72

60:                                               ; preds = %47
  %61 = getelementptr inbounds nuw %"class.cv::xfeatures2d::DAISY_Impl", ptr %24, i32 0, i32 13
  %62 = invoke noundef nonnull align 8 dereferenceable(96) ptr @_ZN2cv3MataSEOS0_(ptr noundef nonnull align 8 dereferenceable(96) %61, ptr noundef nonnull align 8 dereferenceable(96) %21)
          to label %63 unwind label %76

63:                                               ; preds = %60
  call void @_ZN2cv3MatD1Ev(ptr noundef nonnull align 8 dereferenceable(96) %21) #24
  call void @llvm.lifetime.end.p0(i64 96, ptr %21) #24
  ret void

64:                                               ; preds = %9
  %65 = landingpad { ptr, i32 }
          cleanup
  %66 = extractvalue { ptr, i32 } %65, 0
  store ptr %66, ptr %19, align 8
  %67 = extractvalue { ptr, i32 } %65, 1
  store i32 %67, ptr %20, align 4
  br label %82

68:                                               ; preds = %25
  %69 = landingpad { ptr, i32 }
          cleanup
  %70 = extractvalue { ptr, i32 } %69, 0
  store ptr %70, ptr %19, align 8
  %71 = extractvalue { ptr, i32 } %69, 1
  store i32 %71, ptr %20, align 4
  br label %81

72:                                               ; preds = %47
  %73 = landingpad { ptr, i32 }
          cleanup
  %74 = extractvalue { ptr, i32 } %73, 0
  store ptr %74, ptr %19, align 8
  %75 = extractvalue { ptr, i32 } %73, 1
  store i32 %75, ptr %20, align 4
  br label %80

76:                                               ; preds = %60
  %77 = landingpad { ptr, i32 }
          cleanup
  %78 = extractvalue { ptr, i32 } %77, 0
  store ptr %78, ptr %19, align 8
  %79 = extractvalue { ptr, i32 } %77, 1
  store i32 %79, ptr %20, align 4
  call void @_ZN2cv3MatD1Ev(ptr noundef nonnull align 8 dereferenceable(96) %21) #24
  br label %80

80:                                               ; preds = %76, %72
  call void @llvm.lifetime.end.p0(i64 96, ptr %21) #24
  call void @_ZN2cv3MatD1Ev(ptr noundef nonnull align 8 dereferenceable(96) %53) #24
  call void @_ZN2cv3MatD1Ev(ptr noundef nonnull align 8 dereferenceable(96) %52) #24
  call void @_ZN2cv3MatD1Ev(ptr noundef nonnull align 8 dereferenceable(96) %51) #24
  call void @_ZN2cv3MatD1Ev(ptr noundef nonnull align 8 dereferenceable(96) %50) #24
  call void @_ZN2cv3MatD1Ev(ptr noundef nonnull align 8 dereferenceable(96) %49) #24
  call void @_ZNSt6vectorIN2cv3MatESaIS1_EED2Ev(ptr noundef nonnull align 8 dereferenceable(24) %48) #24
  br label %81

81:                                               ; preds = %80, %68
  call void @_ZN2cv3MatD1Ev(ptr noundef nonnull align 8 dereferenceable(96) %45) #24
  call void @_ZN2cv3MatD1Ev(ptr noundef nonnull align 8 dereferenceable(96) %44) #24
  call void @_ZN2cv11xfeatures2d5DAISYD2Ev(ptr noundef nonnull align 8 dereferenceable(8) %24, ptr noundef getelementptr inbounds ([6 x ptr], ptr @_ZTTN2cv11xfeatures2d10DAISY_ImplE, i64 0, i64 1)) #24
  br label %82

82:                                               ; preds = %81, %64
  call void @_ZN2cv9AlgorithmD2Ev(ptr noundef nonnull align 8 dereferenceable(8) %24) #24
  br label %83

83:                                               ; preds = %82
  %84 = load ptr, ptr %19, align 8
  %85 = load i32, ptr %20, align 4
  %86 = insertvalue { ptr, i32 } poison, ptr %84, 0
  %87 = insertvalue { ptr, i32 } %86, i32 %85, 1
  resume { ptr, i32 } %87
}