; Function Attrs: mustprogress uwtable
define hidden void @_ZN2cv11xfeatures2d10DAISY_ImplC1EfiiiNS0_5DAISY17NormalizationTypeERKNS_11_InputArrayEbb(ptr noundef nonnull align 8 dereferenceable(3640) %0, float noundef %1, i32 noundef %2, i32 noundef %3, i32 noundef %4, i32 noundef %5, ptr noundef nonnull align 8 dereferenceable(24) %6, i1 noundef zeroext %7, i1 noundef zeroext %8) unnamed_addr #1 align 2 personality ptr @__gxx_personality_v0 {
  %10 = alloca %"class.cv::Mat", align 8
  tail call void @_ZN2cv9AlgorithmC2Ev(ptr noundef nonnull align 8 dereferenceable(8) %0)
  %11 = zext i1 %8 to i8
  %12 = zext i1 %7 to i8
  store ptr getelementptr inbounds nuw inrange(-80, 304) (i8, ptr @_ZTVN2cv11xfeatures2d10DAISY_ImplE, i64 80), ptr %0, align 8, !tbaa !122
  %13 = getelementptr inbounds nuw i8, ptr %0, i64 8
  store float %1, ptr %13, align 8, !tbaa !152
  %14 = getelementptr inbounds nuw i8, ptr %0, i64 12
  store i32 %2, ptr %14, align 4, !tbaa !87
  %15 = getelementptr inbounds nuw i8, ptr %0, i64 16
  store i32 %3, ptr %15, align 8, !tbaa !3
  %16 = getelementptr inbounds nuw i8, ptr %0, i64 20
  store i32 %4, ptr %16, align 4, !tbaa !28
  %17 = getelementptr inbounds nuw i8, ptr %0, i64 24
  store i32 %5, ptr %17, align 8, !tbaa !34
  %18 = getelementptr inbounds nuw i8, ptr %0, i64 42
  store i8 %12, ptr %18, align 2, !tbaa !31
  %19 = getelementptr inbounds nuw i8, ptr %0, i64 43
  store i8 %11, ptr %19, align 1, !tbaa !100
  %20 = getelementptr inbounds nuw i8, ptr %0, i64 48
  tail call void @_ZN2cv3MatC1Ev(ptr noundef nonnull align 8 dereferenceable(96) %20) #28
  %21 = getelementptr inbounds nuw i8, ptr %0, i64 144
  tail call void @_ZN2cv3MatC1Ev(ptr noundef nonnull align 8 dereferenceable(96) %21) #28
  %22 = getelementptr inbounds nuw i8, ptr %0, i64 240
  %23 = getelementptr inbounds nuw i8, ptr %0, i64 280
  tail call void @llvm.memset.p0.i64(ptr noundef nonnull align 8 dereferenceable(40) %22, i8 0, i64 40, i1 false)
  tail call void @_ZN2cv3MatC1Ev(ptr noundef nonnull align 8 dereferenceable(96) %23) #28
  %24 = getelementptr inbounds nuw i8, ptr %0, i64 376
  tail call void @_ZN2cv3MatC1Ev(ptr noundef nonnull align 8 dereferenceable(96) %24) #28
  %25 = getelementptr inbounds nuw i8, ptr %0, i64 472
  tail call void @_ZN2cv3MatC1Ev(ptr noundef nonnull align 8 dereferenceable(96) %25) #28
  %26 = getelementptr inbounds nuw i8, ptr %0, i64 568
  tail call void @_ZN2cv3MatC1Ev(ptr noundef nonnull align 8 dereferenceable(96) %26) #28
  %27 = getelementptr inbounds nuw i8, ptr %0, i64 664
  tail call void @_ZN2cv3MatC1Ev(ptr noundef nonnull align 8 dereferenceable(96) %27) #28
  %28 = getelementptr inbounds nuw i8, ptr %0, i64 28
  store i32 0, ptr %28, align 4, !tbaa !30
  %29 = getelementptr inbounds nuw i8, ptr %0, i64 32
  store i32 0, ptr %29, align 8, !tbaa !29
  %30 = getelementptr inbounds nuw i8, ptr %0, i64 40
  store i8 0, ptr %30, align 8, !tbaa !120
  %31 = getelementptr inbounds nuw i8, ptr %0, i64 41
  store i8 0, ptr %31, align 1, !tbaa !121
  %32 = getelementptr inbounds nuw i8, ptr %0, i64 36
  store i32 36, ptr %32, align 4, !tbaa !153
  call void @llvm.lifetime.start.p0(i64 96, ptr nonnull %10) #28
  %33 = invoke noundef i32 @_ZNK2cv11_InputArray4kindEv(ptr noundef nonnull align 8 dereferenceable(24) %6)
          to label %.noexc unwind label %41

.noexc:                                           ; preds = %9
  %34 = icmp eq i32 %33, 65536
  br i1 %34, label %35, label %38

35:                                               ; preds = %.noexc
  %36 = getelementptr inbounds nuw i8, ptr %6, i64 8
  %37 = load ptr, ptr %36, align 8, !tbaa !81, !noalias !157
  invoke void @_ZN2cv3MatC1ERKS0_(ptr noundef nonnull align 8 dereferenceable(96) %10, ptr noundef nonnull align 8 dereferenceable(96) %37)
          to label %_ZNK2cv11_InputArray6getMatEi.exit unwind label %41

38:                                               ; preds = %.noexc
  invoke void @_ZNK2cv11_InputArray7getMat_Ei(ptr dead_on_unwind nonnull writable sret(%"class.cv::Mat") align 8 %10, ptr noundef nonnull align 8 dereferenceable(24) %6, i32 noundef -1)
          to label %_ZNK2cv11_InputArray6getMatEi.exit unwind label %41

_ZNK2cv11_InputArray6getMatEi.exit:               ; preds = %35, %38
  %39 = invoke noundef nonnull align 8 dereferenceable(96) ptr @_ZN2cv3MataSEOS0_(ptr noundef nonnull align 8 dereferenceable(96) %20, ptr noundef nonnull align 8 dereferenceable(96) %10)
          to label %40 unwind label %43

40:                                               ; preds = %_ZNK2cv11_InputArray6getMatEi.exit
  call void @_ZN2cv3MatD1Ev(ptr noundef nonnull align 8 dereferenceable(96) %10) #28
  call void @llvm.lifetime.end.p0(i64 96, ptr nonnull %10) #28
  ret void

41:                                               ; preds = %38, %35, %9
  %42 = landingpad { ptr, i32 }
          cleanup
  br label %45

43:                                               ; preds = %_ZNK2cv11_InputArray6getMatEi.exit
  %44 = landingpad { ptr, i32 }
          cleanup
  call void @_ZN2cv3MatD1Ev(ptr noundef nonnull align 8 dereferenceable(96) %10) #28
  br label %45

45:                                               ; preds = %43, %41
  %.pn = phi { ptr, i32 } [ %44, %43 ], [ %42, %41 ]
  %46 = getelementptr inbounds nuw i8, ptr %0, i64 256
  call void @llvm.lifetime.end.p0(i64 96, ptr nonnull %10) #28
  call void @_ZN2cv3MatD1Ev(ptr noundef nonnull align 8 dereferenceable(96) %27) #28
  call void @_ZN2cv3MatD1Ev(ptr noundef nonnull align 8 dereferenceable(96) %26) #28
  call void @_ZN2cv3MatD1Ev(ptr noundef nonnull align 8 dereferenceable(96) %25) #28
  call void @_ZN2cv3MatD1Ev(ptr noundef nonnull align 8 dereferenceable(96) %24) #28
  call void @_ZN2cv3MatD1Ev(ptr noundef nonnull align 8 dereferenceable(96) %23) #28
  call void @_ZNSt6vectorIN2cv3MatESaIS1_EED2Ev(ptr noundef nonnull align 8 dereferenceable(24) %46) #28
  call void @_ZN2cv3MatD1Ev(ptr noundef nonnull align 8 dereferenceable(96) %21) #28
  call void @_ZN2cv3MatD1Ev(ptr noundef nonnull align 8 dereferenceable(96) %20) #28
  call void @_ZN2cv9Feature2DD2Ev(ptr noundef nonnull align 8 dereferenceable(8) %0, ptr noundef nonnull getelementptr inbounds nuw (i8, ptr @_ZTTN2cv11xfeatures2d10DAISY_ImplE, i64 16)) #28
  call void @_ZN2cv9AlgorithmD2Ev(ptr noundef nonnull align 8 dereferenceable(8) %0) #28
  resume { ptr, i32 } %.pn
}